target datalayout = "e-m:e-p270:32:32-p271:32:32-p272:64:64-i64:64-i128:128-f80:128-n8:16:32:64-S128"
target triple = "x86_64-pc-linux-gnu"

%struct.ggml_opt_dataset = type { ptr, ptr, ptr, ptr, i64, i64, i64, i64, %"class.std::vector" }
%"class.std::vector" = type { %"struct.std::_Vector_base" }
%"struct.std::_Vector_base" = type { %"struct.std::_Vector_base<long, std::allocator<long>>::_Vector_impl" }
%"struct.std::_Vector_base<long, std::allocator<long>>::_Vector_impl" = type { %"struct.std::_Vector_base<long, std::allocator<long>>::_Vector_impl_data" }
%"struct.std::_Vector_base<long, std::allocator<long>>::_Vector_impl_data" = type { ptr, ptr, ptr }
%struct.ggml_opt_context = type { ptr, ptr, ptr, ptr, ptr, ptr, ptr, ptr, ptr, %"class.std::mersenne_twister_engine", ptr, ptr, ptr, ptr, ptr, ptr, ptr, ptr, ptr, i64, i32, i32, i8, ptr, ptr, ptr }
%"class.std::mersenne_twister_engine" = type { [624 x i64], i64 }
%struct.ggml_tensor = type { i32, ptr, [4 x i64], [4 x i64], i32, [16 x i32], i32, [10 x ptr], ptr, i64, ptr, [64 x i8], ptr, [8 x i8] }

@.str = private unnamed_addr constant [119 x i8] c"generated/home/dtcxzyw/WorkSpace/Projects/compilers/llvm-opt-benchmark/bench/llama.cpp/llama.cpp/ggml/src/ggml-opt.cpp\00", align 1
@.str.1 = private unnamed_addr constant [23 x i8] c"GGML_ASSERT(%s) failed\00", align 1
@.str.29 = private unnamed_addr constant [29 x i8] c"data->ne[0] == inputs->ne[0]\00", align 1
@.str.30 = private unnamed_addr constant [33 x i8] c"data->ne[1] % inputs->ne[1] == 0\00", align 1
@.str.31 = private unnamed_addr constant [31 x i8] c"idata_split % ndata_batch == 0\00", align 1

; Function Attrs: mustprogress uwtable
define void @ggml_opt_reset(ptr noundef %0, i1 noundef zeroext %1) #0 {
  %3 = alloca ptr, align 8
  %4 = alloca i8, align 1
  store ptr %0, ptr %3, align 8, !tbaa !40
  %5 = zext i1 %1 to i8
  store i8 %5, ptr %4, align 1, !tbaa !28
  %6 = load i8, ptr %4, align 1, !tbaa !28, !range !111, !noundef !112
  %7 = trunc i8 %6 to i1
  br i1 %7, label %8, label %14

8:                                                ; preds = %2
  %9 = load ptr, ptr %3, align 8, !tbaa !40
  %10 = getelementptr inbounds nuw %struct.ggml_opt_context, ptr %9, i32 0, i32 18
  %11 = load ptr, ptr %10, align 8, !tbaa !123
  call void @ggml_graph_reset(ptr noundef %11)
  %12 = load ptr, ptr %3, align 8, !tbaa !40
  %13 = getelementptr inbounds nuw %struct.ggml_opt_context, ptr %12, i32 0, i32 19
  store i64 1, ptr %13, align 8, !tbaa !130
  br label %18

14:                                               ; preds = %2
  %15 = load ptr, ptr %3, align 8, !tbaa !40
  %16 = getelementptr inbounds nuw %struct.ggml_opt_context, ptr %15, i32 0, i32 17
  %17 = load ptr, ptr %16, align 8, !tbaa !122
  call void @ggml_graph_reset(ptr noundef %17)
  br label %18

18:                                               ; preds = %14, %8
  ret void
}

; Function Attrs: mustprogress uwtable
define void @ggml_opt_forward(ptr noundef %0, ptr noundef %1) #0 {
  %3 = alloca ptr, align 8
  %4 = alloca ptr, align 8
  store ptr %0, ptr %3, align 8, !tbaa !40
  store ptr %1, ptr %4, align 8, !tbaa !132
  %5 = load ptr, ptr %3, align 8, !tbaa !40
  %6 = load ptr, ptr %3, align 8, !tbaa !40
  %7 = getelementptr inbounds nuw %struct.ggml_opt_context, ptr %6, i32 0, i32 16
  %8 = load ptr, ptr %7, align 8, !tbaa !99
  %9 = load ptr, ptr %4, align 8, !tbaa !132
  call void @_ZL19ggml_opt_eval_graphP16ggml_opt_contextP11ggml_cgraphP15ggml_opt_result(ptr noundef %5, ptr noundef %8, ptr noundef %9)
  ret void
}

; Function Attrs: mustprogress uwtable
define void @ggml_opt_forward_backward(ptr noundef %0, ptr noundef %1) #0 {
  %3 = alloca ptr, align 8
  %4 = alloca ptr, align 8
  %5 = alloca i32, align 4
  store ptr %0, ptr %3, align 8, !tbaa !40
  store ptr %1, ptr %4, align 8, !tbaa !132
  %6 = load ptr, ptr %3, align 8, !tbaa !40
  %7 = getelementptr inbounds nuw %struct.ggml_opt_context, ptr %6, i32 0, i32 20
  %8 = load i32, ptr %7, align 8, !tbaa !96
  %9 = icmp eq i32 %8, 1
  br i1 %9, label %10, label %16

10:                                               ; preds = %2
  %11 = load ptr, ptr %3, align 8, !tbaa !40
  %12 = load ptr, ptr %3, align 8, !tbaa !40
  %13 = getelementptr inbounds nuw %struct.ggml_opt_context, ptr %12, i32 0, i32 18
  %14 = load ptr, ptr %13, align 8, !tbaa !123
  %15 = load ptr, ptr %4, align 8, !tbaa !132
  call void @_ZL19ggml_opt_eval_graphP16ggml_opt_contextP11ggml_cgraphP15ggml_opt_result(ptr noundef %11, ptr noundef %14, ptr noundef %15)
  br label %44

16:                                               ; preds = %2
  call void @llvm.lifetime.start.p0(i64 4, ptr %5) #17
  %17 = load ptr, ptr %3, align 8, !tbaa !40
  %18 = getelementptr inbounds nuw %struct.ggml_opt_context, ptr %17, i32 0, i32 21
  %19 = load i32, ptr %18, align 4, !tbaa !131
  %20 = add nsw i32 %19, 1
  %21 = load ptr, ptr %3, align 8, !tbaa !40
  %22 = getelementptr inbounds nuw %struct.ggml_opt_context, ptr %21, i32 0, i32 20
  %23 = load i32, ptr %22, align 8, !tbaa !96
  %24 = srem i32 %20, %23
  store i32 %24, ptr %5, align 4, !tbaa !100
  %25 = load i32, ptr %5, align 4, !tbaa !100
  %26 = icmp eq i32 %25, 0
  br i1 %26, label %27, label %34

27:                                               ; preds = %16
  %28 = load ptr, ptr %3, align 8, !tbaa !40
  %29 = load ptr, ptr %3, align 8, !tbaa !40
  %30 = getelementptr inbounds nuw %struct.ggml_opt_context, ptr %29, i32 0, i32 18
  %31 = load ptr, ptr %30, align 8, !tbaa !123
  %32 = load ptr, ptr %4, align 8, !tbaa !132
  call void @_ZL19ggml_opt_eval_graphP16ggml_opt_contextP11ggml_cgraphP15ggml_opt_result(ptr noundef %28, ptr noundef %31, ptr noundef %32)
  %33 = load ptr, ptr %3, align 8, !tbaa !40
  call void @ggml_opt_reset(ptr noundef %33, i1 noundef zeroext false)
  br label %40

34:                                               ; preds = %16
  %35 = load ptr, ptr %3, align 8, !tbaa !40
  %36 = load ptr, ptr %3, align 8, !tbaa !40
  %37 = getelementptr inbounds nuw %struct.ggml_opt_context, ptr %36, i32 0, i32 17
  %38 = load ptr, ptr %37, align 8, !tbaa !122
  %39 = load ptr, ptr %4, align 8, !tbaa !132
  call void @_ZL19ggml_opt_eval_graphP16ggml_opt_contextP11ggml_cgraphP15ggml_opt_result(ptr noundef %35, ptr noundef %38, ptr noundef %39)
  br label %40

40:                                               ; preds = %34, %27
  %41 = load i32, ptr %5, align 4, !tbaa !100
  %42 = load ptr, ptr %3, align 8, !tbaa !40
  %43 = getelementptr inbounds nuw %struct.ggml_opt_context, ptr %42, i32 0, i32 21
  store i32 %41, ptr %43, align 4, !tbaa !131
  call void @llvm.lifetime.end.p0(i64 4, ptr %5) #17
  br label %44

44:                                               ; preds = %40, %10
  ret void
}

; Function Attrs: mustprogress nounwind uwtable
define ptr @ggml_opt_dataset_data(ptr noundef %0) #7 {
  %2 = alloca ptr, align 8
  store ptr %0, ptr %2, align 8, !tbaa !7
  %3 = load ptr, ptr %2, align 8, !tbaa !7
  %4 = getelementptr inbounds nuw %struct.ggml_opt_dataset, ptr %3, i32 0, i32 2
  %5 = load ptr, ptr %4, align 8, !tbaa !30
  ret ptr %5
}

; Function Attrs: mustprogress nounwind uwtable
define ptr @ggml_opt_labels(ptr noundef %0) #7 {
  %2 = alloca ptr, align 8
  store ptr %0, ptr %2, align 8, !tbaa !40
  %3 = load ptr, ptr %2, align 8, !tbaa !40
  %4 = getelementptr inbounds nuw %struct.ggml_opt_context, ptr %3, i32 0, i32 12
  %5 = load ptr, ptr %4, align 8, !tbaa !118
  ret ptr %5
}

; Function Attrs: mustprogress nounwind uwtable
define ptr @ggml_opt_inputs(ptr noundef %0) #7 {
  %2 = alloca ptr, align 8
  store ptr %0, ptr %2, align 8, !tbaa !40
  %3 = load ptr, ptr %2, align 8, !tbaa !40
  %4 = getelementptr inbounds nuw %struct.ggml_opt_context, ptr %3, i32 0, i32 10
  %5 = load ptr, ptr %4, align 8, !tbaa !94
  ret ptr %5
}

; Function Attrs: mustprogress uwtable
define void @ggml_opt_epoch(ptr noundef %0, ptr noundef %1, ptr noundef %2, ptr noundef %3, i64 noundef %4, ptr noundef %5, ptr noundef %6) #0 {
  %8 = alloca ptr, align 8
  %9 = alloca ptr, align 8
  %10 = alloca ptr, align 8
  %11 = alloca ptr, align 8
  %12 = alloca i64, align 8
  %13 = alloca ptr, align 8
  %14 = alloca ptr, align 8
  %15 = alloca ptr, align 8
  %16 = alloca ptr, align 8
  %17 = alloca ptr, align 8
  %18 = alloca i64, align 8
  %19 = alloca i64, align 8
  %20 = alloca i64, align 8
  %21 = alloca i64, align 8
  %22 = alloca i64, align 8
  %23 = alloca i64, align 8
  store ptr %0, ptr %8, align 8, !tbaa !40
  store ptr %1, ptr %9, align 8, !tbaa !7
  store ptr %2, ptr %10, align 8, !tbaa !132
  store ptr %3, ptr %11, align 8, !tbaa !132
  store i64 %4, ptr %12, align 8, !tbaa !3
  store ptr %5, ptr %13, align 8, !tbaa !27
  store ptr %6, ptr %14, align 8, !tbaa !27
  call void @llvm.lifetime.start.p0(i64 8, ptr %15) #17
  %24 = load ptr, ptr %8, align 8, !tbaa !40
  %25 = call ptr @ggml_opt_inputs(ptr noundef %24)
  store ptr %25, ptr %15, align 8, !tbaa !55
  call void @llvm.lifetime.start.p0(i64 8, ptr %16) #17
  %26 = load ptr, ptr %8, align 8, !tbaa !40
  %27 = call ptr @ggml_opt_labels(ptr noundef %26)
  store ptr %27, ptr %16, align 8, !tbaa !55
  call void @llvm.lifetime.start.p0(i64 8, ptr %17) #17
  %28 = load ptr, ptr %9, align 8, !tbaa !7
  %29 = call ptr @ggml_opt_dataset_data(ptr noundef %28)
  store ptr %29, ptr %17, align 8, !tbaa !55
  %30 = load ptr, ptr %17, align 8, !tbaa !55
  %31 = getelementptr inbounds nuw %struct.ggml_tensor, ptr %30, i32 0, i32 2
  %32 = getelementptr inbounds [4 x i64], ptr %31, i64 0, i64 0
  %33 = load i64, ptr %32, align 8, !tbaa !3
  %34 = load ptr, ptr %15, align 8, !tbaa !55
  %35 = getelementptr inbounds nuw %struct.ggml_tensor, ptr %34, i32 0, i32 2
  %36 = getelementptr inbounds [4 x i64], ptr %35, i64 0, i64 0
  %37 = load i64, ptr %36, align 8, !tbaa !3
  %38 = icmp eq i64 %33, %37
  br i1 %38, label %40, label %39

39:                                               ; preds = %7
  call void (ptr, i32, ptr, ...) @ggml_abort(ptr noundef @.str, i32 noundef 688, ptr noundef @.str.1, ptr noundef @.str.29) #16
  unreachable

40:                                               ; preds = %7
  call void @llvm.lifetime.start.p0(i64 8, ptr %18) #17
  %41 = load ptr, ptr %17, align 8, !tbaa !55
  %42 = getelementptr inbounds nuw %struct.ggml_tensor, ptr %41, i32 0, i32 2
  %43 = getelementptr inbounds [4 x i64], ptr %42, i64 0, i64 1
  %44 = load i64, ptr %43, align 8, !tbaa !3
  store i64 %44, ptr %18, align 8, !tbaa !3
  call void @llvm.lifetime.start.p0(i64 8, ptr %19) #17
  %45 = load ptr, ptr %15, align 8, !tbaa !55
  %46 = getelementptr inbounds nuw %struct.ggml_tensor, ptr %45, i32 0, i32 2
  %47 = getelementptr inbounds [4 x i64], ptr %46, i64 0, i64 1
  %48 = load i64, ptr %47, align 8, !tbaa !3
  store i64 %48, ptr %19, align 8, !tbaa !3
  %49 = load ptr, ptr %17, align 8, !tbaa !55
  %50 = getelementptr inbounds nuw %struct.ggml_tensor, ptr %49, i32 0, i32 2
  %51 = getelementptr inbounds [4 x i64], ptr %50, i64 0, i64 1
  %52 = load i64, ptr %51, align 8, !tbaa !3
  %53 = load ptr, ptr %15, align 8, !tbaa !55
  %54 = getelementptr inbounds nuw %struct.ggml_tensor, ptr %53, i32 0, i32 2
  %55 = getelementptr inbounds [4 x i64], ptr %54, i64 0, i64 1
  %56 = load i64, ptr %55, align 8, !tbaa !3
  %57 = srem i64 %52, %56
  %58 = icmp eq i64 %57, 0
  br i1 %58, label %60, label %59

59:                                               ; preds = %40
  call void (ptr, i32, ptr, ...) @ggml_abort(ptr noundef @.str, i32 noundef 693, ptr noundef @.str.1, ptr noundef @.str.30) #16
  unreachable

60:                                               ; preds = %40
  call void @llvm.lifetime.start.p0(i64 8, ptr %20) #17
  %61 = load i64, ptr %18, align 8, !tbaa !3
  %62 = load i64, ptr %19, align 8, !tbaa !3
  %63 = sdiv i64 %61, %62
  store i64 %63, ptr %20, align 8, !tbaa !3
  %64 = load i64, ptr %12, align 8, !tbaa !3
  %65 = icmp slt i64 %64, 0
  br i1 %65, label %66, label %68

66:                                               ; preds = %60
  %67 = load i64, ptr %18, align 8, !tbaa !3
  br label %70

68:                                               ; preds = %60
  %69 = load i64, ptr %12, align 8, !tbaa !3
  br label %70

70:                                               ; preds = %68, %66
  %71 = phi i64 [ %67, %66 ], [ %69, %68 ]
  store i64 %71, ptr %12, align 8, !tbaa !3
  %72 = load i64, ptr %12, align 8, !tbaa !3
  %73 = load i64, ptr %19, align 8, !tbaa !3
  %74 = srem i64 %72, %73
  %75 = icmp eq i64 %74, 0
  br i1 %75, label %77, label %76

76:                                               ; preds = %70
  call void (ptr, i32, ptr, ...) @ggml_abort(ptr noundef @.str, i32 noundef 697, ptr noundef @.str.1, ptr noundef @.str.31) #16
  unreachable

77:                                               ; preds = %70
  call void @llvm.lifetime.start.p0(i64 8, ptr %21) #17
  %78 = load i64, ptr %12, align 8, !tbaa !3
  %79 = load i64, ptr %19, align 8, !tbaa !3
  %80 = sdiv i64 %78, %79
  store i64 %80, ptr %21, align 8, !tbaa !3
  call void @llvm.lifetime.start.p0(i64 8, ptr %22) #17
  store i64 0, ptr %22, align 8, !tbaa !3
  call void @llvm.lifetime.start.p0(i64 8, ptr %23) #17
  %81 = call i64 @ggml_time_us()
  store i64 %81, ptr %23, align 8, !tbaa !3
  br label %82

82:                                               ; preds = %105, %77
  %83 = load i64, ptr %22, align 8, !tbaa !3
  %84 = load i64, ptr %21, align 8, !tbaa !3
  %85 = icmp slt i64 %83, %84
  br i1 %85, label %86, label %108

86:                                               ; preds = %82
  %87 = load ptr, ptr %9, align 8, !tbaa !7
  %88 = load ptr, ptr %15, align 8, !tbaa !55
  %89 = load ptr, ptr %16, align 8, !tbaa !55
  %90 = load i64, ptr %22, align 8, !tbaa !3
  call void @ggml_opt_dataset_get_batch(ptr noundef %87, ptr noundef %88, ptr noundef %89, i64 noundef %90)
  %91 = load ptr, ptr %8, align 8, !tbaa !40
  %92 = load ptr, ptr %10, align 8, !tbaa !132
  call void @ggml_opt_forward_backward(ptr noundef %91, ptr noundef %92)
  %93 = load ptr, ptr %13, align 8, !tbaa !27
  %94 = icmp ne ptr %93, null
  br i1 %94, label %95, label %104

95:                                               ; preds = %86
  %96 = load ptr, ptr %13, align 8, !tbaa !27
  %97 = load ptr, ptr %8, align 8, !tbaa !40
  %98 = load ptr, ptr %9, align 8, !tbaa !7
  %99 = load ptr, ptr %10, align 8, !tbaa !132
  %100 = load i64, ptr %22, align 8, !tbaa !3
  %101 = add nsw i64 %100, 1
  %102 = load i64, ptr %21, align 8, !tbaa !3
  %103 = load i64, ptr %23, align 8, !tbaa !3
  call void %96(i1 noundef zeroext true, ptr noundef %97, ptr noundef %98, ptr noundef %99, i64 noundef %101, i64 noundef %102, i64 noundef %103)
  br label %104

104:                                              ; preds = %95, %86
  br label %105

105:                                              ; preds = %104
  %106 = load i64, ptr %22, align 8, !tbaa !3
  %107 = add nsw i64 %106, 1
  store i64 %107, ptr %22, align 8, !tbaa !3
  br label %82, !llvm.loop !169

108:                                              ; preds = %82
  %109 = call i64 @ggml_time_us()
  store i64 %109, ptr %23, align 8, !tbaa !3
  br label %110

110:                                              ; preds = %137, %108
  %111 = load i64, ptr %22, align 8, !tbaa !3
  %112 = load i64, ptr %20, align 8, !tbaa !3
  %113 = icmp slt i64 %111, %112
  br i1 %113, label %114, label %140

114:                                              ; preds = %110
  %115 = load ptr, ptr %9, align 8, !tbaa !7
  %116 = load ptr, ptr %15, align 8, !tbaa !55
  %117 = load ptr, ptr %16, align 8, !tbaa !55
  %118 = load i64, ptr %22, align 8, !tbaa !3
  call void @ggml_opt_dataset_get_batch(ptr noundef %115, ptr noundef %116, ptr noundef %117, i64 noundef %118)
  %119 = load ptr, ptr %8, align 8, !tbaa !40
  %120 = load ptr, ptr %11, align 8, !tbaa !132
  call void @ggml_opt_forward(ptr noundef %119, ptr noundef %120)
  %121 = load ptr, ptr %14, align 8, !tbaa !27
  %122 = icmp ne ptr %121, null
  br i1 %122, label %123, label %136

123:                                              ; preds = %114
  %124 = load ptr, ptr %14, align 8, !tbaa !27
  %125 = load ptr, ptr %8, align 8, !tbaa !40
  %126 = load ptr, ptr %9, align 8, !tbaa !7
  %127 = load ptr, ptr %11, align 8, !tbaa !132
  %128 = load i64, ptr %22, align 8, !tbaa !3
  %129 = add nsw i64 %128, 1
  %130 = load i64, ptr %21, align 8, !tbaa !3
  %131 = sub nsw i64 %129, %130
  %132 = load i64, ptr %20, align 8, !tbaa !3
  %133 = load i64, ptr %21, align 8, !tbaa !3
  %134 = sub nsw i64 %132, %133
  %135 = load i64, ptr %23, align 8, !tbaa !3
  call void %124(i1 noundef zeroext false, ptr noundef %125, ptr noundef %126, ptr noundef %127, i64 noundef %131, i64 noundef %134, i64 noundef %135)
  br label %136

136:                                              ; preds = %123, %114
  br label %137

137:                                              ; preds = %136
  %138 = load i64, ptr %22, align 8, !tbaa !3
  %139 = add nsw i64 %138, 1
  store i64 %139, ptr %22, align 8, !tbaa !3
  br label %110, !llvm.loop !170

140:                                              ; preds = %110
  call void @llvm.lifetime.end.p0(i64 8, ptr %23) #17
  call void @llvm.lifetime.end.p0(i64 8, ptr %22) #17
  call void @llvm.lifetime.end.p0(i64 8, ptr %21) #17
  call void @llvm.lifetime.end.p0(i64 8, ptr %20) #17
  call void @llvm.lifetime.end.p0(i64 8, ptr %19) #17
  call void @llvm.lifetime.end.p0(i64 8, ptr %18) #17
  call void @llvm.lifetime.end.p0(i64 8, ptr %17) #17
  call void @llvm.lifetime.end.p0(i64 8, ptr %16) #17
  call void @llvm.lifetime.end.p0(i64 8, ptr %15) #17
  ret void
}