; Function Attrs: mustprogress uwtable
define void @ggml_opt_epoch(ptr noundef %0, ptr noundef %1, ptr noundef %2, ptr noundef %3, i64 noundef %4, ptr noundef readonly %5, ptr noundef readonly %6) local_unnamed_addr #0 {
  %8 = getelementptr inbounds nuw i8, ptr %0, i64 5072
  %9 = load ptr, ptr %8, align 8, !tbaa !76
  %10 = getelementptr inbounds nuw i8, ptr %0, i64 5088
  %11 = load ptr, ptr %10, align 8, !tbaa !96
  %12 = getelementptr inbounds nuw i8, ptr %1, i64 16
  %13 = load ptr, ptr %12, align 8, !tbaa !23
  %14 = getelementptr inbounds nuw i8, ptr %13, i64 16
  %15 = load i64, ptr %14, align 8, !tbaa !18
  %16 = getelementptr inbounds nuw i8, ptr %9, i64 16
  %17 = load i64, ptr %16, align 8, !tbaa !18
  %18 = icmp eq i64 %15, %17
  br i1 %18, label %20, label %19

19:                                               ; preds = %7
  tail call void (ptr, i32, ptr, ...) @ggml_abort(ptr noundef nonnull @.str, i32 noundef 688, ptr noundef nonnull @.str.1, ptr noundef nonnull @.str.29) #27
  unreachable

20:                                               ; preds = %7
  %21 = getelementptr inbounds nuw i8, ptr %13, i64 24
  %22 = load i64, ptr %21, align 8, !tbaa !18
  %23 = getelementptr inbounds nuw i8, ptr %9, i64 24
  %24 = load i64, ptr %23, align 8, !tbaa !18
  %25 = srem i64 %22, %24
  %26 = sdiv i64 %22, %24
  %27 = icmp eq i64 %25, 0
  br i1 %27, label %29, label %28

28:                                               ; preds = %20
  tail call void (ptr, i32, ptr, ...) @ggml_abort(ptr noundef nonnull @.str, i32 noundef 693, ptr noundef nonnull @.str.1, ptr noundef nonnull @.str.30) #27
  unreachable

29:                                               ; preds = %20
  %30 = icmp slt i64 %4, 0
  %31 = select i1 %30, i64 %22, i64 %4
  %32 = srem i64 %31, %24
  %33 = sdiv i64 %31, %24
  %34 = icmp eq i64 %32, 0
  br i1 %34, label %36, label %35

35:                                               ; preds = %29
  tail call void (ptr, i32, ptr, ...) @ggml_abort(ptr noundef nonnull @.str, i32 noundef 697, ptr noundef nonnull @.str.1, ptr noundef nonnull @.str.31) #27
  unreachable

36:                                               ; preds = %29
  %37 = tail call i64 @ggml_time_us()
  %38 = icmp sgt i64 %33, 0
  br i1 %38, label %.lr.ph, label %._crit_edge

.lr.ph:                                           ; preds = %36
  %39 = getelementptr inbounds nuw i8, ptr %0, i64 5152
  %40 = getelementptr inbounds nuw i8, ptr %0, i64 5156
  %41 = getelementptr inbounds nuw i8, ptr %0, i64 5128
  %42 = getelementptr inbounds nuw i8, ptr %0, i64 5136
  %.not58 = icmp eq ptr %5, null
  br i1 %.not58, label %.lr.ph.split.us, label %.lr.ph.split

.lr.ph.split.us:                                  ; preds = %.lr.ph, %ggml_opt_forward_backward.exit.us
  %.059.us = phi i64 [ %58, %ggml_opt_forward_backward.exit.us ], [ 0, %.lr.ph ]
  tail call void @ggml_opt_dataset_get_batch(ptr noundef %1, ptr noundef %9, ptr noundef %11, i64 noundef %.059.us)
  %43 = load i32, ptr %39, align 8, !tbaa !78
  %44 = icmp eq i32 %43, 1
  br i1 %44, label %56, label %45

45:                                               ; preds = %.lr.ph.split.us
  %46 = load i32, ptr %40, align 4, !tbaa !72
  %47 = add nsw i32 %46, 1
  %48 = srem i32 %47, %43
  %49 = icmp eq i32 %48, 0
  br i1 %49, label %52, label %50

50:                                               ; preds = %45
  %51 = load ptr, ptr %41, align 8, !tbaa !100
  tail call fastcc void @_ZL19ggml_opt_eval_graphP16ggml_opt_contextP11ggml_cgraphP15ggml_opt_result(ptr noundef nonnull %0, ptr noundef %51, ptr noundef %2)
  br label %55

52:                                               ; preds = %45
  %53 = load ptr, ptr %42, align 8, !tbaa !101
  tail call fastcc void @_ZL19ggml_opt_eval_graphP16ggml_opt_contextP11ggml_cgraphP15ggml_opt_result(ptr noundef nonnull %0, ptr noundef %53, ptr noundef %2)
  %54 = load ptr, ptr %41, align 8, !tbaa !100
  tail call void @ggml_graph_reset(ptr noundef %54)
  br label %55

55:                                               ; preds = %52, %50
  store i32 %48, ptr %40, align 4, !tbaa !72
  br label %ggml_opt_forward_backward.exit.us

56:                                               ; preds = %.lr.ph.split.us
  %57 = load ptr, ptr %42, align 8, !tbaa !101
  tail call fastcc void @_ZL19ggml_opt_eval_graphP16ggml_opt_contextP11ggml_cgraphP15ggml_opt_result(ptr noundef nonnull %0, ptr noundef %57, ptr noundef %2)
  br label %ggml_opt_forward_backward.exit.us

ggml_opt_forward_backward.exit.us:                ; preds = %56, %55
  %58 = add nuw nsw i64 %.059.us, 1
  %exitcond67.not = icmp eq i64 %58, %33
  br i1 %exitcond67.not, label %._crit_edge, label %.lr.ph.split.us, !llvm.loop !158

.lr.ph.split:                                     ; preds = %.lr.ph, %ggml_opt_forward_backward.exit
  %.059 = phi i64 [ %74, %ggml_opt_forward_backward.exit ], [ 0, %.lr.ph ]
  tail call void @ggml_opt_dataset_get_batch(ptr noundef %1, ptr noundef %9, ptr noundef %11, i64 noundef %.059)
  %59 = load i32, ptr %39, align 8, !tbaa !78
  %60 = icmp eq i32 %59, 1
  br i1 %60, label %61, label %63

61:                                               ; preds = %.lr.ph.split
  %62 = load ptr, ptr %42, align 8, !tbaa !101
  tail call fastcc void @_ZL19ggml_opt_eval_graphP16ggml_opt_contextP11ggml_cgraphP15ggml_opt_result(ptr noundef nonnull %0, ptr noundef %62, ptr noundef %2)
  br label %ggml_opt_forward_backward.exit

63:                                               ; preds = %.lr.ph.split
  %64 = load i32, ptr %40, align 4, !tbaa !72
  %65 = add nsw i32 %64, 1
  %66 = srem i32 %65, %59
  %67 = icmp eq i32 %66, 0
  br i1 %67, label %68, label %71

68:                                               ; preds = %63
  %69 = load ptr, ptr %42, align 8, !tbaa !101
  tail call fastcc void @_ZL19ggml_opt_eval_graphP16ggml_opt_contextP11ggml_cgraphP15ggml_opt_result(ptr noundef nonnull %0, ptr noundef %69, ptr noundef %2)
  %70 = load ptr, ptr %41, align 8, !tbaa !100
  tail call void @ggml_graph_reset(ptr noundef %70)
  br label %73

71:                                               ; preds = %63
  %72 = load ptr, ptr %41, align 8, !tbaa !100
  tail call fastcc void @_ZL19ggml_opt_eval_graphP16ggml_opt_contextP11ggml_cgraphP15ggml_opt_result(ptr noundef nonnull %0, ptr noundef %72, ptr noundef %2)
  br label %73

73:                                               ; preds = %71, %68
  store i32 %66, ptr %40, align 4, !tbaa !72
  br label %ggml_opt_forward_backward.exit

ggml_opt_forward_backward.exit:                   ; preds = %61, %73
  %74 = add nuw nsw i64 %.059, 1
  tail call void %5(i1 noundef zeroext true, ptr noundef nonnull %0, ptr noundef %1, ptr noundef %2, i64 noundef %74, i64 noundef %33, i64 noundef %37)
  %exitcond.not = icmp eq i64 %74, %33
  br i1 %exitcond.not, label %._crit_edge, label %.lr.ph.split, !llvm.loop !158

._crit_edge:                                      ; preds = %ggml_opt_forward_backward.exit, %ggml_opt_forward_backward.exit.us, %36
  %.0.lcssa = phi i64 [ 0, %36 ], [ %33, %ggml_opt_forward_backward.exit.us ], [ %33, %ggml_opt_forward_backward.exit ]
  %75 = tail call i64 @ggml_time_us()
  %76 = icmp slt i64 %.0.lcssa, %26
  br i1 %76, label %.lr.ph62, label %._crit_edge63

.lr.ph62:                                         ; preds = %._crit_edge
  %77 = getelementptr inbounds nuw i8, ptr %0, i64 5120
  %.not = icmp eq ptr %6, null
  %78 = sub nsw i64 %26, %33
  br i1 %.not, label %.lr.ph62.split.us, label %.lr.ph62.split

.lr.ph62.split.us:                                ; preds = %.lr.ph62, %.lr.ph62.split.us
  %.160.us = phi i64 [ %80, %.lr.ph62.split.us ], [ %.0.lcssa, %.lr.ph62 ]
  tail call void @ggml_opt_dataset_get_batch(ptr noundef %1, ptr noundef %9, ptr noundef %11, i64 noundef %.160.us)
  %79 = load ptr, ptr %77, align 8, !tbaa !81
  tail call fastcc void @_ZL19ggml_opt_eval_graphP16ggml_opt_contextP11ggml_cgraphP15ggml_opt_result(ptr noundef nonnull %0, ptr noundef %79, ptr noundef %3)
  %80 = add i64 %.160.us, 1
  %exitcond69.not = icmp eq i64 %80, %26
  br i1 %exitcond69.not, label %._crit_edge63, label %.lr.ph62.split.us, !llvm.loop !159

.lr.ph62.split:                                   ; preds = %.lr.ph62, %.lr.ph62.split
  %.160 = phi i64 [ %83, %.lr.ph62.split ], [ %.0.lcssa, %.lr.ph62 ]
  tail call void @ggml_opt_dataset_get_batch(ptr noundef %1, ptr noundef %9, ptr noundef %11, i64 noundef %.160)
  %81 = load ptr, ptr %77, align 8, !tbaa !81
  tail call fastcc void @_ZL19ggml_opt_eval_graphP16ggml_opt_contextP11ggml_cgraphP15ggml_opt_result(ptr noundef nonnull %0, ptr noundef %81, ptr noundef %3)
  %reass.sub = sub i64 %.160, %33
  %82 = add i64 %reass.sub, 1
  tail call void %6(i1 noundef zeroext false, ptr noundef nonnull %0, ptr noundef %1, ptr noundef %3, i64 noundef %82, i64 noundef %78, i64 noundef %75)
  %83 = add i64 %.160, 1
  %exitcond68.not = icmp eq i64 %83, %26
  br i1 %exitcond68.not, label %._crit_edge63, label %.lr.ph62.split, !llvm.loop !159

._crit_edge63:                                    ; preds = %.lr.ph62.split, %.lr.ph62.split.us, %._crit_edge
  ret void
}